; Function Attrs: mustprogress uwtable
define void @_ZN23LBMLBTRMTransportDialog12resetSourcesEv(ptr nocapture noundef nonnull readonly align 8 dereferenceable(96) %0) local_unnamed_addr #0 align 2 {
  %2 = getelementptr inbounds i8, ptr %0, i64 40
  br label %3

3:                                                ; preds = %3, %1
  %4 = load ptr, ptr %2, align 8
  %5 = getelementptr inbounds i8, ptr %4, i64 224
  %6 = load ptr, ptr %5, align 8
  %7 = tail call noundef ptr @_ZN11QTreeWidget16takeTopLevelItemEi(ptr noundef nonnull align 8 dereferenceable(40) %6, i32 noundef 0)
  %.not = icmp eq ptr %7, null
  br i1 %.not, label %8, label %3, !llvm.loop !57

8:                                                ; preds = %3
  ret void
}